target datalayout = "e-m:e-p270:32:32-p271:32:32-p272:64:64-i64:64-i128:128-f80:128-n8:16:32:64-S128"
target triple = "x86_64-pc-linux-gnu"

%"class.rocksdb::LogBuffer" = type { i8, ptr, %"class.rocksdb::Arena", %"class.rocksdb::autovector", [8 x i8] }
%"class.rocksdb::Arena" = type { %"class.rocksdb::Allocator", [8 x i8], [2048 x i8], i64, %"class.std::deque", %"class.std::deque.0", i64, ptr, ptr, i64, i64, i64, ptr }
%"class.rocksdb::Allocator" = type { ptr }
%"class.std::deque" = type { %"class.std::_Deque_base" }
%"class.std::_Deque_base" = type { %"struct.std::_Deque_base<std::unique_ptr<char[]>, std::allocator<std::unique_ptr<char[]>>>::_Deque_impl" }
%"struct.std::_Deque_base<std::unique_ptr<char[]>, std::allocator<std::unique_ptr<char[]>>>::_Deque_impl" = type { %"struct.std::_Deque_base<std::unique_ptr<char[]>, std::allocator<std::unique_ptr<char[]>>>::_Deque_impl_data" }
%"struct.std::_Deque_base<std::unique_ptr<char[]>, std::allocator<std::unique_ptr<char[]>>>::_Deque_impl_data" = type { ptr, i64, %"struct.std::_Deque_iterator", %"struct.std::_Deque_iterator" }
%"struct.std::_Deque_iterator" = type { ptr, ptr, ptr, ptr }
%"class.std::deque.0" = type { %"class.std::_Deque_base.1" }
%"class.std::_Deque_base.1" = type { %"struct.std::_Deque_base<rocksdb::MemMapping, std::allocator<rocksdb::MemMapping>>::_Deque_impl" }
%"struct.std::_Deque_base<rocksdb::MemMapping, std::allocator<rocksdb::MemMapping>>::_Deque_impl" = type { %"struct.std::_Deque_base<rocksdb::MemMapping, std::allocator<rocksdb::MemMapping>>::_Deque_impl_data" }
%"struct.std::_Deque_base<rocksdb::MemMapping, std::allocator<rocksdb::MemMapping>>::_Deque_impl_data" = type { ptr, i64, %"struct.std::_Deque_iterator.5", %"struct.std::_Deque_iterator.5" }
%"struct.std::_Deque_iterator.5" = type { ptr, ptr, ptr, ptr }
%"class.rocksdb::autovector" = type { i64, [64 x i8], ptr, %"class.std::vector" }
%"class.std::vector" = type { %"struct.std::_Vector_base" }
%"struct.std::_Vector_base" = type { %"struct.std::_Vector_base<rocksdb::LogBuffer::BufferedLog *, std::allocator<rocksdb::LogBuffer::BufferedLog *>>::_Vector_impl" }
%"struct.std::_Vector_base<rocksdb::LogBuffer::BufferedLog *, std::allocator<rocksdb::LogBuffer::BufferedLog *>>::_Vector_impl" = type { %"struct.std::_Vector_base<rocksdb::LogBuffer::BufferedLog *, std::allocator<rocksdb::LogBuffer::BufferedLog *>>::_Vector_impl_data" }
%"struct.std::_Vector_base<rocksdb::LogBuffer::BufferedLog *, std::allocator<rocksdb::LogBuffer::BufferedLog *>>::_Vector_impl_data" = type { ptr, ptr, ptr }

; Function Attrs: mustprogress nounwind uwtable
define linkonce_odr void @_ZNSt15__new_allocatorIPN7rocksdb9LogBuffer11BufferedLogEEC2Ev(ptr noundef nonnull align 1 dereferenceable(1) %0) unnamed_addr #2 comdat align 2 {
  %2 = alloca ptr, align 8
  store ptr %0, ptr %2, align 8, !tbaa !97
  ret void
}

; Function Attrs: mustprogress nounwind uwtable
define linkonce_odr void @_ZNSt12_Vector_baseIPN7rocksdb9LogBuffer11BufferedLogESaIS3_EE17_Vector_impl_dataC2Ev(ptr noundef nonnull align 8 dereferenceable(24) %0) unnamed_addr #2 comdat align 2 {
  %2 = alloca ptr, align 8
  store ptr %0, ptr %2, align 8, !tbaa !92
  %3 = load ptr, ptr %2, align 8
  %4 = getelementptr inbounds nuw %"struct.std::_Vector_base<rocksdb::LogBuffer::BufferedLog *, std::allocator<rocksdb::LogBuffer::BufferedLog *>>::_Vector_impl_data", ptr %3, i32 0, i32 0
  store ptr null, ptr %4, align 8, !tbaa !94
  %5 = getelementptr inbounds nuw %"struct.std::_Vector_base<rocksdb::LogBuffer::BufferedLog *, std::allocator<rocksdb::LogBuffer::BufferedLog *>>::_Vector_impl_data", ptr %3, i32 0, i32 1
  store ptr null, ptr %5, align 8, !tbaa !95
  %6 = getelementptr inbounds nuw %"struct.std::_Vector_base<rocksdb::LogBuffer::BufferedLog *, std::allocator<rocksdb::LogBuffer::BufferedLog *>>::_Vector_impl_data", ptr %3, i32 0, i32 2
  store ptr null, ptr %6, align 8, !tbaa !96
  ret void
}

; Function Attrs: mustprogress nounwind uwtable
define linkonce_odr void @_ZNSaIPN7rocksdb9LogBuffer11BufferedLogEEC2Ev(ptr noundef nonnull align 1 dereferenceable(1) %0) unnamed_addr #2 comdat align 2 {
  %2 = alloca ptr, align 8
  store ptr %0, ptr %2, align 8, !tbaa !90
  %3 = load ptr, ptr %2, align 8
  call void @_ZNSt15__new_allocatorIPN7rocksdb9LogBuffer11BufferedLogEEC2Ev(ptr noundef nonnull align 1 dereferenceable(1) %3) #15
  ret void
}

; Function Attrs: mustprogress nounwind uwtable
define linkonce_odr void @_ZNSt12_Vector_baseIPN7rocksdb9LogBuffer11BufferedLogESaIS3_EE12_Vector_implC2Ev(ptr noundef nonnull align 8 dereferenceable(24) %0) unnamed_addr #2 comdat align 2 {
  %2 = alloca ptr, align 8
  store ptr %0, ptr %2, align 8, !tbaa !88
  %3 = load ptr, ptr %2, align 8
  call void @_ZNSaIPN7rocksdb9LogBuffer11BufferedLogEEC2Ev(ptr noundef nonnull align 1 dereferenceable(1) %3) #15
  call void @_ZNSt12_Vector_baseIPN7rocksdb9LogBuffer11BufferedLogESaIS3_EE17_Vector_impl_dataC2Ev(ptr noundef nonnull align 8 dereferenceable(24) %3) #15
  ret void
}

; Function Attrs: mustprogress nounwind uwtable
define linkonce_odr void @_ZNSt12_Vector_baseIPN7rocksdb9LogBuffer11BufferedLogESaIS3_EEC2Ev(ptr noundef nonnull align 8 dereferenceable(24) %0) unnamed_addr #2 comdat align 2 {
  %2 = alloca ptr, align 8
  store ptr %0, ptr %2, align 8, !tbaa !86
  %3 = load ptr, ptr %2, align 8
  %4 = getelementptr inbounds nuw %"struct.std::_Vector_base", ptr %3, i32 0, i32 0
  call void @_ZNSt12_Vector_baseIPN7rocksdb9LogBuffer11BufferedLogESaIS3_EE12_Vector_implC2Ev(ptr noundef nonnull align 8 dereferenceable(24) %4) #15
  ret void
}

; Function Attrs: mustprogress nounwind uwtable
define linkonce_odr void @_ZNSt6vectorIPN7rocksdb9LogBuffer11BufferedLogESaIS3_EEC2Ev(ptr noundef nonnull align 8 dereferenceable(24) %0) unnamed_addr #2 comdat align 2 {
  %2 = alloca ptr, align 8
  store ptr %0, ptr %2, align 8, !tbaa !84
  %3 = load ptr, ptr %2, align 8
  call void @_ZNSt12_Vector_baseIPN7rocksdb9LogBuffer11BufferedLogESaIS3_EEC2Ev(ptr noundef nonnull align 8 dereferenceable(24) %3) #15
  ret void
}

; Function Attrs: mustprogress nounwind uwtable
define linkonce_odr void @_ZN7rocksdb10autovectorIPNS_9LogBuffer11BufferedLogELm8EEC2Ev(ptr noundef nonnull align 8 dereferenceable(104) %0) unnamed_addr #2 comdat align 2 {
  %2 = alloca ptr, align 8
  store ptr %0, ptr %2, align 8, !tbaa !42
  %3 = load ptr, ptr %2, align 8
  %4 = getelementptr inbounds nuw %"class.rocksdb::autovector", ptr %3, i32 0, i32 0
  store i64 0, ptr %4, align 8, !tbaa !44
  %5 = getelementptr inbounds nuw %"class.rocksdb::autovector", ptr %3, i32 0, i32 2
  %6 = getelementptr inbounds nuw %"class.rocksdb::autovector", ptr %3, i32 0, i32 1
  %7 = getelementptr inbounds [64 x i8], ptr %6, i64 0, i64 0
  store ptr %7, ptr %5, align 8, !tbaa !45
  %8 = getelementptr inbounds nuw %"class.rocksdb::autovector", ptr %3, i32 0, i32 3
  call void @_ZNSt6vectorIPN7rocksdb9LogBuffer11BufferedLogESaIS3_EEC2Ev(ptr noundef nonnull align 8 dereferenceable(24) %8) #15
  ret void
}

; Function Attrs: mustprogress uwtable
define void @_ZN7rocksdb9LogBufferC2ENS_12InfoLogLevelEPNS_6LoggerE(ptr noundef nonnull align 16 dereferenceable(2408) %0, i8 noundef zeroext %1, ptr noundef %2) unnamed_addr #0 align 2 personality ptr @__gxx_personality_v0 {
  %4 = alloca ptr, align 8
  %5 = alloca i8, align 1
  %6 = alloca ptr, align 8
  %7 = alloca ptr, align 8
  %8 = alloca i32, align 4
  store ptr %0, ptr %4, align 8, !tbaa !4
  store i8 %1, ptr %5, align 1, !tbaa !9
  store ptr %2, ptr %6, align 8, !tbaa !11
  %9 = load ptr, ptr %4, align 8
  %10 = getelementptr inbounds nuw %"class.rocksdb::LogBuffer", ptr %9, i32 0, i32 0
  %11 = load i8, ptr %5, align 1, !tbaa !9
  store i8 %11, ptr %10, align 16, !tbaa !13
  %12 = getelementptr inbounds nuw %"class.rocksdb::LogBuffer", ptr %9, i32 0, i32 1
  %13 = load ptr, ptr %6, align 8, !tbaa !11
  store ptr %13, ptr %12, align 8, !tbaa !41
  %14 = getelementptr inbounds nuw %"class.rocksdb::LogBuffer", ptr %9, i32 0, i32 2
  call void @_ZN7rocksdb5ArenaC1EmPNS_12AllocTrackerEm(ptr noundef nonnull align 16 dereferenceable(2288) %14, i64 noundef 4096, ptr noundef null, i64 noundef 0)
  %15 = getelementptr inbounds nuw %"class.rocksdb::LogBuffer", ptr %9, i32 0, i32 3
  invoke void @_ZN7rocksdb10autovectorIPNS_9LogBuffer11BufferedLogELm8EEC2Ev(ptr noundef nonnull align 8 dereferenceable(104) %15)
          to label %16 unwind label %17

16:                                               ; preds = %3
  ret void

17:                                               ; preds = %3
  %18 = landingpad { ptr, i32 }
          cleanup
  %19 = extractvalue { ptr, i32 } %18, 0
  store ptr %19, ptr %7, align 8
  %20 = extractvalue { ptr, i32 } %18, 1
  store i32 %20, ptr %8, align 4
  call void @_ZN7rocksdb5ArenaD1Ev(ptr noundef nonnull align 16 dereferenceable(2288) %14) #15
  br label %21

21:                                               ; preds = %17
  %22 = load ptr, ptr %7, align 8
  %23 = load i32, ptr %8, align 4
  %24 = insertvalue { ptr, i32 } poison, ptr %22, 0
  %25 = insertvalue { ptr, i32 } %24, i32 %23, 1
  resume { ptr, i32 } %25
}