; Function Attrs: mustprogress uwtable
define void @_ZN7rocksdb9LogBufferC2ENS_12InfoLogLevelEPNS_6LoggerE(ptr noundef nonnull align 16 dereferenceable(2408) initializes((0, 1), (8, 16)) %0, i8 noundef zeroext %1, ptr noundef %2) unnamed_addr #0 align 2 personality ptr @__gxx_personality_v0 {
  store i8 %1, ptr %0, align 16, !tbaa !4
  %4 = getelementptr inbounds nuw i8, ptr %0, i64 8
  store ptr %2, ptr %4, align 8, !tbaa !37
  %5 = getelementptr inbounds nuw i8, ptr %0, i64 16
  tail call void @_ZN7rocksdb5ArenaC1EmPNS_12AllocTrackerEm(ptr noundef nonnull align 16 dereferenceable(2288) %5, i64 noundef 4096, ptr noundef null, i64 noundef 0)
  %6 = getelementptr inbounds nuw i8, ptr %0, i64 2304
  store i64 0, ptr %6, align 16, !tbaa !38
  %7 = getelementptr inbounds nuw i8, ptr %0, i64 2376
  %8 = getelementptr inbounds nuw i8, ptr %0, i64 2312
  store ptr %8, ptr %7, align 8, !tbaa !39
  %9 = getelementptr inbounds nuw i8, ptr %0, i64 2384
  tail call void @llvm.memset.p0.i64(ptr noundef nonnull align 16 dereferenceable(24) %9, i8 0, i64 24, i1 false)
  ret void
}